; ModuleID = '6/2320.c'
source_filename = "6/2320.c"
target datalayout = "e-m:e-p270:32:32-p271:32:32-p272:64:64-i64:64-f80:128-n8:16:32:64-S128"
target triple = "x86_64-pc-linux-gnu"

@.str = private unnamed_addr constant [3 x i8] c"%d\00", align 1
@.str.1 = private unnamed_addr constant [4 x i8] c"%d\0A\00", align 1
@.str.2 = private unnamed_addr constant [5 x i8] c"%d%d\00", align 1

; Function Attrs: noinline nounwind uwtable
define dso_local void @main() #0 {
  %1 = alloca i32, align 4
  %2 = alloca i32, align 4
  %3 = call i32 (i8*, ...) @__isoc99_scanf(i8* getelementptr inbounds ([3 x i8], [3 x i8]* @.str, i64 0, i64 0), i32* %1)
  store i32 0, i32* %2, align 4
  br label %4

4:                                                ; preds = %11, %0
  %5 = load i32, i32* %2, align 4
  %6 = load i32, i32* %1, align 4
  %7 = icmp slt i32 %5, %6
  br i1 %7, label %8, label %14

8:                                                ; preds = %4
  %9 = call i32 @bianyuan()
  %10 = call i32 (i8*, ...) @printf(i8* getelementptr inbounds ([4 x i8], [4 x i8]* @.str.1, i64 0, i64 0), i32 %9)
  br label %11

11:                                               ; preds = %8
  %12 = load i32, i32* %2, align 4
  %13 = add nsw i32 %12, 1
  store i32 %13, i32* %2, align 4
  br label %4

14:                                               ; preds = %4
  ret void
}

declare dso_local i32 @__isoc99_scanf(i8*, ...) #1

declare dso_local i32 @printf(i8*, ...) #1

; Function Attrs: noinline nounwind uwtable
define dso_local i32 @bianyuan() #0 {
  %1 = alloca i32, align 4
  %2 = alloca [10000 x i32], align 16
  %3 = alloca i32, align 4
  %4 = alloca i32, align 4
  %5 = alloca i32, align 4
  %6 = alloca i32, align 4
  %7 = alloca i32, align 4
  %8 = alloca i32, align 4
  %9 = alloca i32*, align 8
  store i32 0, i32* %8, align 4
  %10 = call i32 (i8*, ...) @__isoc99_scanf(i8* getelementptr inbounds ([5 x i8], [5 x i8]* @.str.2, i64 0, i64 0), i32* %3, i32* %4)
  %11 = load i32, i32* %3, align 4
  %12 = load i32, i32* %4, align 4
  %13 = mul nsw i32 %11, %12
  store i32 %13, i32* %7, align 4
  %14 = getelementptr inbounds [10000 x i32], [10000 x i32]* %2, i64 0, i64 0
  store i32* %14, i32** %9, align 8
  store i32 0, i32* %5, align 4
  br label %15

15:                                               ; preds = %25, %0
  %16 = load i32, i32* %5, align 4
  %17 = load i32, i32* %7, align 4
  %18 = icmp slt i32 %16, %17
  br i1 %18, label %19, label %28

19:                                               ; preds = %15
  %20 = load i32*, i32** %9, align 8
  %21 = load i32, i32* %5, align 4
  %22 = sext i32 %21 to i64
  %23 = getelementptr inbounds i32, i32* %20, i64 %22
  %24 = call i32 (i8*, ...) @__isoc99_scanf(i8* getelementptr inbounds ([3 x i8], [3 x i8]* @.str, i64 0, i64 0), i32* %23)
  br label %25

25:                                               ; preds = %19
  %26 = load i32, i32* %5, align 4
  %27 = add nsw i32 %26, 1
  store i32 %27, i32* %5, align 4
  br label %15

28:                                               ; preds = %15
  %29 = load i32, i32* %7, align 4
  %30 = icmp eq i32 %29, 1
  br i1 %30, label %31, label %34

31:                                               ; preds = %28
  %32 = load i32*, i32** %9, align 8
  %33 = load i32, i32* %32, align 4
  store i32 %33, i32* %1, align 4
  br label %102

34:                                               ; preds = %28
  store i32 0, i32* %5, align 4
  br label %35

35:                                               ; preds = %48, %34
  %36 = load i32, i32* %5, align 4
  %37 = load i32, i32* %4, align 4
  %38 = sub nsw i32 %37, 1
  %39 = icmp slt i32 %36, %38
  br i1 %39, label %40, label %51

40:                                               ; preds = %35
  %41 = load i32*, i32** %9, align 8
  %42 = load i32, i32* %5, align 4
  %43 = sext i32 %42 to i64
  %44 = getelementptr inbounds i32, i32* %41, i64 %43
  %45 = load i32, i32* %44, align 4
  %46 = load i32, i32* %8, align 4
  %47 = add nsw i32 %46, %45
  store i32 %47, i32* %8, align 4
  br label %48

48:                                               ; preds = %40
  %49 = load i32, i32* %5, align 4
  %50 = add nsw i32 %49, 1
  store i32 %50, i32* %5, align 4
  br label %35

51:                                               ; preds = %35
  store i32 1, i32* %5, align 4
  br label %52

52:                                               ; preds = %75, %51
  %53 = load i32, i32* %5, align 4
  %54 = load i32, i32* %3, align 4
  %55 = icmp slt i32 %53, %54
  br i1 %55, label %56, label %78

56:                                               ; preds = %52
  %57 = load i32*, i32** %9, align 8
  %58 = load i32, i32* %5, align 4
  %59 = load i32, i32* %4, align 4
  %60 = mul nsw i32 %58, %59
  %61 = sext i32 %60 to i64
  %62 = getelementptr inbounds i32, i32* %57, i64 %61
  %63 = load i32, i32* %62, align 4
  %64 = load i32*, i32** %9, align 8
  %65 = load i32, i32* %5, align 4
  %66 = load i32, i32* %4, align 4
  %67 = mul nsw i32 %65, %66
  %68 = sext i32 %67 to i64
  %69 = getelementptr inbounds i32, i32* %64, i64 %68
  %70 = getelementptr inbounds i32, i32* %69, i64 -1
  %71 = load i32, i32* %70, align 4
  %72 = add nsw i32 %63, %71
  %73 = load i32, i32* %8, align 4
  %74 = add nsw i32 %73, %72
  store i32 %74, i32* %8, align 4
  br label %75

75:                                               ; preds = %56
  %76 = load i32, i32* %5, align 4
  %77 = add nsw i32 %76, 1
  store i32 %77, i32* %5, align 4
  br label %52

78:                                               ; preds = %52
  store i32 1, i32* %5, align 4
  br label %79

79:                                               ; preds = %97, %78
  %80 = load i32, i32* %5, align 4
  %81 = load i32, i32* %4, align 4
  %82 = icmp slt i32 %80, %81
  br i1 %82, label %83, label %100

83:                                               ; preds = %79
  %84 = load i32*, i32** %9, align 8
  %85 = load i32, i32* %3, align 4
  %86 = sub nsw i32 %85, 1
  %87 = load i32, i32* %4, align 4
  %88 = mul nsw i32 %86, %87
  %89 = sext i32 %88 to i64
  %90 = getelementptr inbounds i32, i32* %84, i64 %89
  %91 = load i32, i32* %5, align 4
  %92 = sext i32 %91 to i64
  %93 = getelementptr inbounds i32, i32* %90, i64 %92
  %94 = load i32, i32* %93, align 4
  %95 = load i32, i32* %8, align 4
  %96 = add nsw i32 %95, %94
  store i32 %96, i32* %8, align 4
  br label %97

97:                                               ; preds = %83
  %98 = load i32, i32* %5, align 4
  %99 = add nsw i32 %98, 1
  store i32 %99, i32* %5, align 4
  br label %79

100:                                              ; preds = %79
  %101 = load i32, i32* %8, align 4
  store i32 %101, i32* %1, align 4
  br label %102

102:                                              ; preds = %100, %31
  %103 = load i32, i32* %1, align 4
  ret i32 %103
}


!llvm.module.flags = !{!0}
!llvm.ident = !{!1}

!0 = !{i32 1, !"wchar_size", i32 4}
!1 = !{!"clang version 10.0.0-4ubuntu1 "}
